; Function Attrs: nofree norecurse nosync nounwind memory(argmem: readwrite) uwtable
define internal void @_blend_linearlight(ptr noundef readonly captures(none) %0, ptr noundef readonly captures(none) %1, ptr noundef writeonly captures(none) %2, ptr noalias noundef readonly captures(none) %3, i64 noundef %4, ptr noundef readonly captures(none) %5, ptr noundef readonly captures(none) %6) unnamed_addr #11 {
  %8 = alloca [4 x float], align 16
  %9 = alloca [4 x float], align 16
  %.not = icmp eq i64 %4, 0
  br i1 %.not, label %._crit_edge, label %.lr.ph

.lr.ph:                                           ; preds = %7
  %10 = getelementptr inbounds nuw i8, ptr %8, i64 4
  %11 = getelementptr inbounds nuw i8, ptr %9, i64 4
  %12 = getelementptr inbounds nuw i8, ptr %5, i64 4
  %13 = getelementptr inbounds nuw i8, ptr %6, i64 4
  %14 = getelementptr inbounds nuw i8, ptr %8, i64 8
  %15 = getelementptr inbounds nuw i8, ptr %9, i64 8
  %16 = getelementptr inbounds nuw i8, ptr %5, i64 8
  %17 = getelementptr inbounds nuw i8, ptr %6, i64 8
  br label %18

._crit_edge:                                      ; preds = %_blend_Lab_rescale.exit, %7
  ret void

18:                                               ; preds = %.lr.ph, %_blend_Lab_rescale.exit
  %.049 = phi i64 [ 0, %.lr.ph ], [ %98, %_blend_Lab_rescale.exit ]
  %.04248 = phi i64 [ 0, %.lr.ph ], [ %99, %_blend_Lab_rescale.exit ]
  %19 = getelementptr inbounds nuw float, ptr %3, i64 %.049
  %20 = load float, ptr %19, align 4, !tbaa !36
  call void @llvm.lifetime.start.p0(i64 16, ptr nonnull %8) #8
  call void @llvm.lifetime.start.p0(i64 16, ptr nonnull %9) #8
  %21 = getelementptr inbounds nuw float, ptr %0, i64 %.04248
  br label %22

22:                                               ; preds = %22, %18
  %.06.i = phi i64 [ 0, %18 ], [ %29, %22 ]
  %23 = getelementptr inbounds nuw float, ptr %21, i64 %.06.i
  %24 = load float, ptr %23, align 4, !tbaa !36
  %25 = getelementptr inbounds nuw [4 x float], ptr @__const._blend_Lab_scale.scale, i64 0, i64 %.06.i
  %26 = load float, ptr %25, align 4, !tbaa !36
  %27 = fmul reassoc nsz arcp contract afn float %26, %24
  %28 = getelementptr inbounds nuw float, ptr %8, i64 %.06.i
  store float %27, ptr %28, align 4, !tbaa !36
  %29 = add nuw nsw i64 %.06.i, 1
  %exitcond.not.i = icmp eq i64 %29, 4
  br i1 %exitcond.not.i, label %_blend_Lab_scale.exit, label %22

_blend_Lab_scale.exit:                            ; preds = %22
  %30 = getelementptr inbounds nuw float, ptr %1, i64 %.04248
  br label %31

31:                                               ; preds = %31, %_blend_Lab_scale.exit
  %.06.i43 = phi i64 [ 0, %_blend_Lab_scale.exit ], [ %38, %31 ]
  %32 = getelementptr inbounds nuw float, ptr %30, i64 %.06.i43
  %33 = load float, ptr %32, align 4, !tbaa !36
  %34 = getelementptr inbounds nuw [4 x float], ptr @__const._blend_Lab_scale.scale, i64 0, i64 %.06.i43
  %35 = load float, ptr %34, align 4, !tbaa !36
  %36 = fmul reassoc nsz arcp contract afn float %35, %33
  %37 = getelementptr inbounds nuw float, ptr %9, i64 %.06.i43
  store float %36, ptr %37, align 4, !tbaa !36
  %38 = add nuw nsw i64 %.06.i43, 1
  %exitcond.not.i44 = icmp eq i64 %38, 4
  br i1 %exitcond.not.i44, label %_blend_Lab_scale.exit45, label %31

_blend_Lab_scale.exit45:                          ; preds = %31
  %39 = fmul reassoc nsz arcp contract afn float %20, %20
  %40 = load float, ptr %6, align 4, !tbaa !36
  %41 = load float, ptr %5, align 4, !tbaa !36
  %42 = tail call reassoc nsz arcp contract afn float @llvm.fabs.f32(float %41)
  %43 = fadd reassoc nsz arcp contract afn float %42, %40
  %44 = load float, ptr %8, align 16, !tbaa !36
  %45 = fadd reassoc nsz arcp contract afn float %44, %42
  %46 = tail call reassoc nsz arcp contract afn float @llvm.maxnum.f32(float %45, float 0.000000e+00)
  %47 = tail call reassoc nsz arcp contract afn noundef float @llvm.minnum.f32(float %46, float %43)
  %48 = load float, ptr %9, align 16, !tbaa !36
  %49 = fadd reassoc nsz arcp contract afn float %48, %42
  %50 = tail call reassoc nsz arcp contract afn float @llvm.maxnum.f32(float %49, float 0.000000e+00)
  %51 = tail call reassoc nsz arcp contract afn noundef float @llvm.minnum.f32(float %50, float %43)
  %52 = fmul reassoc nsz arcp contract afn float %43, 2.000000e+00
  %53 = fsub reassoc nsz arcp contract afn float 1.000000e+00, %39
  %54 = fmul reassoc nsz arcp contract afn float %47, %53
  %55 = fmul reassoc nsz arcp contract afn float %52, %51
  %56 = fsub reassoc nsz arcp contract afn float %47, %43
  %57 = fadd reassoc nsz arcp contract afn float %56, %55
  %58 = fmul reassoc nsz arcp contract afn float %57, %39
  %59 = fadd reassoc nsz arcp contract afn float %58, %54
  %60 = tail call reassoc nsz arcp contract afn float @llvm.maxnum.f32(float %59, float 0.000000e+00)
  %61 = tail call reassoc nsz arcp contract afn noundef float @llvm.minnum.f32(float %60, float %43)
  %62 = fsub reassoc nsz arcp contract afn float %61, %42
  store float %62, ptr %9, align 16, !tbaa !36
  %63 = tail call reassoc nsz arcp contract afn float @llvm.maxnum.f32(float %44, float 0x3F847AE140000000)
  %64 = load float, ptr %10, align 4, !tbaa !36
  %65 = fmul reassoc nsz arcp contract afn float %64, %53
  %66 = load float, ptr %11, align 4, !tbaa !36
  %67 = fadd reassoc nsz arcp contract afn float %66, %64
  %68 = fmul reassoc nsz arcp contract afn float %62, %39
  %69 = fmul reassoc nsz arcp contract afn float %68, %67
  %70 = fdiv reassoc nsz arcp contract afn float %69, %63
  %71 = fadd reassoc nsz arcp contract afn float %70, %65
  %72 = load float, ptr %12, align 4, !tbaa !36
  %73 = load float, ptr %13, align 4, !tbaa !36
  %74 = tail call reassoc nsz arcp contract afn float @llvm.maxnum.f32(float %71, float %72)
  %75 = tail call reassoc nsz arcp contract afn noundef float @llvm.minnum.f32(float %74, float %73)
  store float %75, ptr %11, align 4, !tbaa !36
  %76 = load float, ptr %14, align 8, !tbaa !36
  %77 = fmul reassoc nsz arcp contract afn float %76, %53
  %78 = load float, ptr %15, align 8, !tbaa !36
  %79 = fadd reassoc nsz arcp contract afn float %78, %76
  %80 = fmul reassoc nsz arcp contract afn float %68, %79
  %81 = fdiv reassoc nsz arcp contract afn float %80, %63
  %82 = fadd reassoc nsz arcp contract afn float %81, %77
  %83 = load float, ptr %16, align 4, !tbaa !36
  %84 = load float, ptr %17, align 4, !tbaa !36
  %85 = tail call reassoc nsz arcp contract afn float @llvm.maxnum.f32(float %82, float %83)
  %86 = tail call reassoc nsz arcp contract afn noundef float @llvm.minnum.f32(float %85, float %84)
  store float %86, ptr %15, align 8, !tbaa !36
  %87 = getelementptr inbounds nuw float, ptr %2, i64 %.04248
  br label %88

88:                                               ; preds = %88, %_blend_Lab_scale.exit45
  %.06.i46 = phi i64 [ 0, %_blend_Lab_scale.exit45 ], [ %95, %88 ]
  %89 = getelementptr inbounds nuw float, ptr %9, i64 %.06.i46
  %90 = load float, ptr %89, align 4, !tbaa !36
  %91 = getelementptr inbounds nuw [4 x float], ptr @__const._blend_Lab_rescale.scale, i64 0, i64 %.06.i46
  %92 = load float, ptr %91, align 4, !tbaa !36
  %93 = fmul reassoc nsz arcp contract afn float %92, %90
  %94 = getelementptr inbounds nuw float, ptr %87, i64 %.06.i46
  store float %93, ptr %94, align 4, !tbaa !36
  %95 = add nuw nsw i64 %.06.i46, 1
  %exitcond.not.i47 = icmp eq i64 %95, 4
  br i1 %exitcond.not.i47, label %_blend_Lab_rescale.exit, label %88

_blend_Lab_rescale.exit:                          ; preds = %88
  %96 = or disjoint i64 %.04248, 3
  %97 = getelementptr inbounds nuw float, ptr %2, i64 %96
  store float %20, ptr %97, align 4, !tbaa !36
  call void @llvm.lifetime.end.p0(i64 16, ptr nonnull %9) #8
  call void @llvm.lifetime.end.p0(i64 16, ptr nonnull %8) #8
  %98 = add nuw i64 %.049, 1
  %99 = add i64 %.04248, 4
  %exitcond.not = icmp eq i64 %98, %4
  br i1 %exitcond.not, label %._crit_edge, label %18
}